; ModuleID = '29/1660.c'
source_filename = "29/1660.c"
target datalayout = "e-m:e-p270:32:32-p271:32:32-p272:64:64-i64:64-f80:128-n8:16:32:64-S128"
target triple = "x86_64-pc-linux-gnu"

@.str = private unnamed_addr constant [3 x i8] c"%d\00", align 1
@.str.1 = private unnamed_addr constant [6 x i8] c"%.3f\0A\00", align 1

; Function Attrs: noinline nounwind uwtable
define dso_local i32 @main() #0 {
  %1 = alloca i32, align 4
  %2 = alloca i32, align 4
  %3 = alloca i32, align 4
  %4 = alloca [100 x i32], align 16
  %5 = alloca [100 x float], align 16
  %6 = alloca i32, align 4
  %7 = alloca [100 x float], align 16
  store i32 0, i32* %1, align 4
  %8 = getelementptr inbounds [100 x float], [100 x float]* %5, i64 0, i64 0
  store float 1.000000e+00, float* %8, align 16
  %9 = getelementptr inbounds [100 x float], [100 x float]* %5, i64 0, i64 1
  store float 2.000000e+00, float* %9, align 4
  %10 = getelementptr inbounds [100 x float], [100 x float]* %7, i64 0, i64 0
  store float 2.000000e+00, float* %10, align 16
  store i32 2, i32* %6, align 4
  br label %11

11:                                               ; preds = %49, %0
  %12 = load i32, i32* %6, align 4
  %13 = icmp slt i32 %12, 100
  br i1 %13, label %14, label %52

14:                                               ; preds = %11
  %15 = load i32, i32* %6, align 4
  %16 = sub nsw i32 %15, 1
  %17 = sext i32 %16 to i64
  %18 = getelementptr inbounds [100 x float], [100 x float]* %5, i64 0, i64 %17
  %19 = load float, float* %18, align 4
  %20 = load i32, i32* %6, align 4
  %21 = sub nsw i32 %20, 2
  %22 = sext i32 %21 to i64
  %23 = getelementptr inbounds [100 x float], [100 x float]* %5, i64 0, i64 %22
  %24 = load float, float* %23, align 4
  %25 = fadd float %19, %24
  %26 = load i32, i32* %6, align 4
  %27 = sext i32 %26 to i64
  %28 = getelementptr inbounds [100 x float], [100 x float]* %5, i64 0, i64 %27
  store float %25, float* %28, align 4
  %29 = load i32, i32* %6, align 4
  %30 = sext i32 %29 to i64
  %31 = getelementptr inbounds [100 x float], [100 x float]* %5, i64 0, i64 %30
  %32 = load float, float* %31, align 4
  %33 = load i32, i32* %6, align 4
  %34 = sub nsw i32 %33, 1
  %35 = sext i32 %34 to i64
  %36 = getelementptr inbounds [100 x float], [100 x float]* %5, i64 0, i64 %35
  %37 = load float, float* %36, align 4
  %38 = fdiv float %32, %37
  %39 = load i32, i32* %6, align 4
  %40 = sub nsw i32 %39, 2
  %41 = sext i32 %40 to i64
  %42 = getelementptr inbounds [100 x float], [100 x float]* %7, i64 0, i64 %41
  %43 = load float, float* %42, align 4
  %44 = fadd float %38, %43
  %45 = load i32, i32* %6, align 4
  %46 = sub nsw i32 %45, 1
  %47 = sext i32 %46 to i64
  %48 = getelementptr inbounds [100 x float], [100 x float]* %7, i64 0, i64 %47
  store float %44, float* %48, align 4
  br label %49

49:                                               ; preds = %14
  %50 = load i32, i32* %6, align 4
  %51 = add nsw i32 %50, 1
  store i32 %51, i32* %6, align 4
  br label %11

52:                                               ; preds = %11
  %53 = call i32 (i8*, ...) @__isoc99_scanf(i8* getelementptr inbounds ([3 x i8], [3 x i8]* @.str, i64 0, i64 0), i32* %2)
  store i32 0, i32* %3, align 4
  br label %54

54:                                               ; preds = %63, %52
  %55 = load i32, i32* %3, align 4
  %56 = load i32, i32* %2, align 4
  %57 = icmp slt i32 %55, %56
  br i1 %57, label %58, label %66

58:                                               ; preds = %54
  %59 = load i32, i32* %3, align 4
  %60 = sext i32 %59 to i64
  %61 = getelementptr inbounds [100 x i32], [100 x i32]* %4, i64 0, i64 %60
  %62 = call i32 (i8*, ...) @__isoc99_scanf(i8* getelementptr inbounds ([3 x i8], [3 x i8]* @.str, i64 0, i64 0), i32* %61)
  br label %63

63:                                               ; preds = %58
  %64 = load i32, i32* %3, align 4
  %65 = add nsw i32 %64, 1
  store i32 %65, i32* %3, align 4
  br label %54

66:                                               ; preds = %54
  store i32 0, i32* %3, align 4
  br label %67

67:                                               ; preds = %82, %66
  %68 = load i32, i32* %3, align 4
  %69 = load i32, i32* %2, align 4
  %70 = icmp slt i32 %68, %69
  br i1 %70, label %71, label %85

71:                                               ; preds = %67
  %72 = load i32, i32* %3, align 4
  %73 = sext i32 %72 to i64
  %74 = getelementptr inbounds [100 x i32], [100 x i32]* %4, i64 0, i64 %73
  %75 = load i32, i32* %74, align 4
  %76 = sub nsw i32 %75, 1
  %77 = sext i32 %76 to i64
  %78 = getelementptr inbounds [100 x float], [100 x float]* %7, i64 0, i64 %77
  %79 = load float, float* %78, align 4
  %80 = fpext float %79 to double
  %81 = call i32 (i8*, ...) @printf(i8* getelementptr inbounds ([6 x i8], [6 x i8]* @.str.1, i64 0, i64 0), double %80)
  br label %82

82:                                               ; preds = %71
  %83 = load i32, i32* %3, align 4
  %84 = add nsw i32 %83, 1
  store i32 %84, i32* %3, align 4
  br label %67

85:                                               ; preds = %67
  ret i32 0
}

declare dso_local i32 @__isoc99_scanf(i8*, ...) #1

declare dso_local i32 @printf(i8*, ...) #1


!llvm.module.flags = !{!0}
!llvm.ident = !{!1}

!0 = !{i32 1, !"wchar_size", i32 4}
!1 = !{!"clang version 10.0.0-4ubuntu1 "}
